target datalayout = "e-m:e-p270:32:32-p271:32:32-p272:64:64-i64:64-i128:128-f80:128-n8:16:32:64-S128"
target triple = "x86_64-pc-linux-gnu"

%struct.b2World = type { %struct.b2ArenaAllocator, %struct.b2BroadPhase, %struct.b2ConstraintGraph, %struct.b2IdPool, %struct.b2BodyArray, %struct.b2IdPool, %struct.b2SolverSetArray, %struct.b2IdPool, %struct.b2JointArray, %struct.b2IdPool, %struct.b2ContactArray, %struct.b2IdPool, %struct.b2IslandArray, %struct.b2IdPool, %struct.b2IdPool, %struct.b2ShapeArray, %struct.b2ChainShapeArray, %struct.b2SensorArray, %struct.b2TaskContextArray, %struct.b2SensorTaskContextArray, %struct.b2BodyMoveEventArray, %struct.b2SensorBeginTouchEventArray, %struct.b2ContactBeginTouchEventArray, [2 x %struct.b2SensorEndTouchEventArray], [2 x %struct.b2ContactEndTouchEventArray], i32, %struct.b2ContactHitEventArray, %struct.b2BitSet, %struct.b2BitSet, %struct.b2BitSet, i64, i32, %struct.b2Vec2, float, float, float, float, float, float, float, float, ptr, ptr, i16, %struct.b2Profile, ptr, ptr, ptr, ptr, i32, ptr, ptr, ptr, ptr, ptr, float, i32, i32, i16, i8, i8, i8, i8, i8, i8 }
%struct.b2ArenaAllocator = type { ptr, i32, i32, i32, i32, %struct.b2ArenaEntryArray }
%struct.b2ArenaEntryArray = type { ptr, i32, i32 }
%struct.b2BroadPhase = type { [3 x %struct.b2DynamicTree], i32, %struct.b2HashSet, %struct.b2IntArray, ptr, ptr, i32, %struct.b2AtomicInt, %struct.b2HashSet }
%struct.b2DynamicTree = type { ptr, i32, i32, i32, i32, i32, ptr, ptr, ptr, ptr, i32 }
%struct.b2IntArray = type { ptr, i32, i32 }
%struct.b2AtomicInt = type { i32 }
%struct.b2HashSet = type { ptr, i32, i32 }
%struct.b2ConstraintGraph = type { [12 x %struct.b2GraphColor] }
%struct.b2GraphColor = type { %struct.b2BitSet, %struct.b2ContactSimArray, %struct.b2JointSimArray, %union.anon }
%struct.b2ContactSimArray = type { ptr, i32, i32 }
%struct.b2JointSimArray = type { ptr, i32, i32 }
%union.anon = type { ptr }
%struct.b2BodyArray = type { ptr, i32, i32 }
%struct.b2SolverSetArray = type { ptr, i32, i32 }
%struct.b2JointArray = type { ptr, i32, i32 }
%struct.b2ContactArray = type { ptr, i32, i32 }
%struct.b2IslandArray = type { ptr, i32, i32 }
%struct.b2IdPool = type { %struct.b2IntArray, i32 }
%struct.b2ShapeArray = type { ptr, i32, i32 }
%struct.b2ChainShapeArray = type { ptr, i32, i32 }
%struct.b2SensorArray = type { ptr, i32, i32 }
%struct.b2TaskContextArray = type { ptr, i32, i32 }
%struct.b2SensorTaskContextArray = type { ptr, i32, i32 }
%struct.b2BodyMoveEventArray = type { ptr, i32, i32 }
%struct.b2SensorBeginTouchEventArray = type { ptr, i32, i32 }
%struct.b2ContactBeginTouchEventArray = type { ptr, i32, i32 }
%struct.b2SensorEndTouchEventArray = type { ptr, i32, i32 }
%struct.b2ContactEndTouchEventArray = type { ptr, i32, i32 }
%struct.b2ContactHitEventArray = type { ptr, i32, i32 }
%struct.b2BitSet = type { ptr, i32, i32 }
%struct.b2Vec2 = type { float, float }
%struct.b2Profile = type { float, float, float, float, float, float, float, float, float, float, float, float, float, float, float, float, float, float, float, float, float, float }
%struct.b2WorldId = type { i16, i16 }
%struct.b2AABB = type { %struct.b2Vec2, %struct.b2Vec2 }
%struct.b2TreeStats = type { i32, i32 }
%struct.ExplosionContext = type { ptr, %struct.b2Vec2, float, float, float }
%struct.b2ExplosionDef = type { i64, %struct.b2Vec2, float, float, float }

@b2_worlds = hidden global [128 x %struct.b2World] zeroinitializer, align 16

; Function Attrs: nounwind uwtable
define hidden ptr @b2GetWorldFromId(i32 %0) #0 {
  %2 = alloca %struct.b2WorldId, align 2
  %3 = alloca ptr, align 8
  store i32 %0, ptr %2, align 2
  call void @llvm.lifetime.start.p0(i64 8, ptr %3) #10
  %4 = getelementptr inbounds nuw %struct.b2WorldId, ptr %2, i32 0, i32 0
  %5 = load i16, ptr %4, align 2, !tbaa !44
  %6 = zext i16 %5 to i32
  %7 = sub nsw i32 %6, 1
  %8 = sext i32 %7 to i64
  %9 = getelementptr inbounds %struct.b2World, ptr @b2_worlds, i64 %8
  store ptr %9, ptr %3, align 8, !tbaa !47
  %10 = load ptr, ptr %3, align 8, !tbaa !47
  call void @llvm.lifetime.end.p0(i64 8, ptr %3) #10
  ret ptr %10
}

; Function Attrs: nounwind uwtable
define void @b2World_Explode(i32 %0, ptr noundef %1) #6 {
  %3 = alloca %struct.b2WorldId, align 2
  %4 = alloca ptr, align 8
  %5 = alloca i64, align 8
  %6 = alloca %struct.b2Vec2, align 4
  %7 = alloca float, align 4
  %8 = alloca float, align 4
  %9 = alloca float, align 4
  %10 = alloca ptr, align 8
  %11 = alloca i32, align 4
  %12 = alloca %struct.ExplosionContext, align 8
  %13 = alloca %struct.b2AABB, align 4
  %14 = alloca %struct.b2TreeStats, align 4
  store i32 %0, ptr %3, align 2
  store ptr %1, ptr %4, align 8, !tbaa !572
  call void @llvm.lifetime.start.p0(i64 8, ptr %5) #10
  %15 = load ptr, ptr %4, align 8, !tbaa !572
  %16 = getelementptr inbounds nuw %struct.b2ExplosionDef, ptr %15, i32 0, i32 0
  %17 = load i64, ptr %16, align 8, !tbaa !574
  store i64 %17, ptr %5, align 8, !tbaa !123
  call void @llvm.lifetime.start.p0(i64 8, ptr %6) #10
  %18 = load ptr, ptr %4, align 8, !tbaa !572
  %19 = getelementptr inbounds nuw %struct.b2ExplosionDef, ptr %18, i32 0, i32 1
  call void @llvm.memcpy.p0.p0.i64(ptr align 4 %6, ptr align 8 %19, i64 8, i1 false), !tbaa.struct !162
  call void @llvm.lifetime.start.p0(i64 4, ptr %7) #10
  %20 = load ptr, ptr %4, align 8, !tbaa !572
  %21 = getelementptr inbounds nuw %struct.b2ExplosionDef, ptr %20, i32 0, i32 2
  %22 = load float, ptr %21, align 8, !tbaa !576
  store float %22, ptr %7, align 4, !tbaa !124
  call void @llvm.lifetime.start.p0(i64 4, ptr %8) #10
  %23 = load ptr, ptr %4, align 8, !tbaa !572
  %24 = getelementptr inbounds nuw %struct.b2ExplosionDef, ptr %23, i32 0, i32 3
  %25 = load float, ptr %24, align 4, !tbaa !577
  store float %25, ptr %8, align 4, !tbaa !124
  call void @llvm.lifetime.start.p0(i64 4, ptr %9) #10
  %26 = load ptr, ptr %4, align 8, !tbaa !572
  %27 = getelementptr inbounds nuw %struct.b2ExplosionDef, ptr %26, i32 0, i32 4
  %28 = load float, ptr %27, align 8, !tbaa !578
  store float %28, ptr %9, align 4, !tbaa !124
  call void @llvm.lifetime.start.p0(i64 8, ptr %10) #10
  %29 = load i32, ptr %3, align 2
  %30 = call ptr @b2GetWorldFromId(i32 %29)
  store ptr %30, ptr %10, align 8, !tbaa !47
  %31 = load ptr, ptr %10, align 8, !tbaa !47
  %32 = getelementptr inbounds nuw %struct.b2World, ptr %31, i32 0, i32 60
  %33 = load i8, ptr %32, align 1, !tbaa !49, !range !90, !noundef !91
  %34 = trunc i8 %33 to i1
  br i1 %34, label %35, label %36

35:                                               ; preds = %2
  store i32 1, ptr %11, align 4
  br label %90

36:                                               ; preds = %2
  call void @llvm.lifetime.start.p0(i64 32, ptr %12) #10
  %37 = getelementptr inbounds nuw %struct.ExplosionContext, ptr %12, i32 0, i32 0
  %38 = load ptr, ptr %10, align 8, !tbaa !47
  store ptr %38, ptr %37, align 8, !tbaa !579
  %39 = getelementptr inbounds nuw %struct.ExplosionContext, ptr %12, i32 0, i32 1
  call void @llvm.memcpy.p0.p0.i64(ptr align 8 %39, ptr align 4 %6, i64 8, i1 false), !tbaa.struct !162
  %40 = getelementptr inbounds nuw %struct.ExplosionContext, ptr %12, i32 0, i32 2
  %41 = load float, ptr %7, align 4, !tbaa !124
  store float %41, ptr %40, align 8, !tbaa !581
  %42 = getelementptr inbounds nuw %struct.ExplosionContext, ptr %12, i32 0, i32 3
  %43 = load float, ptr %8, align 4, !tbaa !124
  store float %43, ptr %42, align 4, !tbaa !582
  %44 = getelementptr inbounds nuw %struct.ExplosionContext, ptr %12, i32 0, i32 4
  %45 = load float, ptr %9, align 4, !tbaa !124
  store float %45, ptr %44, align 8, !tbaa !583
  %46 = getelementptr i8, ptr %12, i64 28
  call void @llvm.memset.p0.i64(ptr align 4 %46, i8 0, i64 4, i1 false)
  call void @llvm.lifetime.start.p0(i64 16, ptr %13) #10
  %47 = getelementptr inbounds nuw %struct.b2Vec2, ptr %6, i32 0, i32 0
  %48 = load float, ptr %47, align 4, !tbaa !341
  %49 = load float, ptr %7, align 4, !tbaa !124
  %50 = load float, ptr %8, align 4, !tbaa !124
  %51 = fadd float %49, %50
  %52 = fsub float %48, %51
  %53 = getelementptr inbounds nuw %struct.b2AABB, ptr %13, i32 0, i32 0
  %54 = getelementptr inbounds nuw %struct.b2Vec2, ptr %53, i32 0, i32 0
  store float %52, ptr %54, align 4, !tbaa !340
  %55 = getelementptr inbounds nuw %struct.b2Vec2, ptr %6, i32 0, i32 1
  %56 = load float, ptr %55, align 4, !tbaa !343
  %57 = load float, ptr %7, align 4, !tbaa !124
  %58 = load float, ptr %8, align 4, !tbaa !124
  %59 = fadd float %57, %58
  %60 = fsub float %56, %59
  %61 = getelementptr inbounds nuw %struct.b2AABB, ptr %13, i32 0, i32 0
  %62 = getelementptr inbounds nuw %struct.b2Vec2, ptr %61, i32 0, i32 1
  store float %60, ptr %62, align 4, !tbaa !342
  %63 = getelementptr inbounds nuw %struct.b2Vec2, ptr %6, i32 0, i32 0
  %64 = load float, ptr %63, align 4, !tbaa !341
  %65 = load float, ptr %7, align 4, !tbaa !124
  %66 = load float, ptr %8, align 4, !tbaa !124
  %67 = fadd float %65, %66
  %68 = fadd float %64, %67
  %69 = getelementptr inbounds nuw %struct.b2AABB, ptr %13, i32 0, i32 1
  %70 = getelementptr inbounds nuw %struct.b2Vec2, ptr %69, i32 0, i32 0
  store float %68, ptr %70, align 4, !tbaa !344
  %71 = getelementptr inbounds nuw %struct.b2Vec2, ptr %6, i32 0, i32 1
  %72 = load float, ptr %71, align 4, !tbaa !343
  %73 = load float, ptr %7, align 4, !tbaa !124
  %74 = load float, ptr %8, align 4, !tbaa !124
  %75 = fadd float %73, %74
  %76 = fadd float %72, %75
  %77 = getelementptr inbounds nuw %struct.b2AABB, ptr %13, i32 0, i32 1
  %78 = getelementptr inbounds nuw %struct.b2Vec2, ptr %77, i32 0, i32 1
  store float %76, ptr %78, align 4, !tbaa !345
  %79 = load ptr, ptr %10, align 8, !tbaa !47
  %80 = getelementptr inbounds nuw %struct.b2World, ptr %79, i32 0, i32 1
  %81 = getelementptr inbounds nuw %struct.b2BroadPhase, ptr %80, i32 0, i32 0
  %82 = getelementptr inbounds [3 x %struct.b2DynamicTree], ptr %81, i64 0, i64 0
  %83 = getelementptr inbounds %struct.b2DynamicTree, ptr %82, i64 2
  %84 = load i64, ptr %5, align 8, !tbaa !123
  %85 = getelementptr inbounds nuw { <2 x float>, <2 x float> }, ptr %13, i32 0, i32 0
  %86 = load <2 x float>, ptr %85, align 4
  %87 = getelementptr inbounds nuw { <2 x float>, <2 x float> }, ptr %13, i32 0, i32 1
  %88 = load <2 x float>, ptr %87, align 4
  %89 = call i64 @b2DynamicTree_Query(ptr noundef %83, <2 x float> %86, <2 x float> %88, i64 noundef %84, ptr noundef @ExplosionCallback, ptr noundef %12)
  store i64 %89, ptr %14, align 4
  call void @llvm.lifetime.end.p0(i64 16, ptr %13) #10
  call void @llvm.lifetime.end.p0(i64 32, ptr %12) #10
  store i32 0, ptr %11, align 4
  br label %90

90:                                               ; preds = %36, %35
  call void @llvm.lifetime.end.p0(i64 8, ptr %10) #10
  call void @llvm.lifetime.end.p0(i64 4, ptr %9) #10
  call void @llvm.lifetime.end.p0(i64 4, ptr %8) #10
  call void @llvm.lifetime.end.p0(i64 4, ptr %7) #10
  call void @llvm.lifetime.end.p0(i64 8, ptr %6) #10
  call void @llvm.lifetime.end.p0(i64 8, ptr %5) #10
  %91 = load i32, ptr %11, align 4
  switch i32 %91, label %93 [
    i32 0, label %92
    i32 1, label %92
  ]

92:                                               ; preds = %90, %90
  ret void

93:                                               ; preds = %90
  unreachable
}