; Function Attrs: nounwind uwtable
define void @b2World_Explode(i32 %0, ptr noundef readonly captures(none) %1) local_unnamed_addr #8 {
  %3 = alloca %struct.ExplosionContext, align 8
  %4 = and i32 %0, 65535
  %5 = zext nneg i32 %4 to i64
  %6 = getelementptr %struct.b2World, ptr @b2_worlds, i64 %5
  %7 = getelementptr i8, ptr %6, i64 -9
  %8 = load i8, ptr %7, align 1, !tbaa !35, !range !77, !noundef !78
  %9 = trunc nuw i8 %8 to i1
  br i1 %9, label %32, label %10

10:                                               ; preds = %2
  %11 = getelementptr i8, ptr %6, i64 -1792
  %12 = getelementptr inbounds nuw i8, ptr %1, i64 24
  %13 = load float, ptr %12, align 8, !tbaa !464
  %14 = getelementptr inbounds nuw i8, ptr %1, i64 20
  %15 = load float, ptr %14, align 4, !tbaa !466
  %16 = getelementptr inbounds nuw i8, ptr %1, i64 16
  %17 = load float, ptr %16, align 8, !tbaa !467
  %.sroa.6.0..sroa_idx = getelementptr inbounds nuw i8, ptr %1, i64 12
  %.sroa.6.0.copyload = load float, ptr %.sroa.6.0..sroa_idx, align 4, !tbaa !206
  %18 = getelementptr inbounds nuw i8, ptr %1, i64 8
  %.sroa.017.0.copyload = load float, ptr %18, align 8, !tbaa !206
  %19 = load i64, ptr %1, align 8, !tbaa !468
  call void @llvm.lifetime.start.p0(i64 32, ptr nonnull %3) #22
  store ptr %11, ptr %3, align 8, !tbaa !469
  %20 = getelementptr inbounds nuw i8, ptr %3, i64 8
  store float %.sroa.017.0.copyload, ptr %20, align 8, !tbaa !206
  %.sroa.6.0..sroa_idx20 = getelementptr inbounds nuw i8, ptr %3, i64 12
  store float %.sroa.6.0.copyload, ptr %.sroa.6.0..sroa_idx20, align 4, !tbaa !206
  %21 = getelementptr inbounds nuw i8, ptr %3, i64 16
  store float %17, ptr %21, align 8, !tbaa !471
  %22 = getelementptr inbounds nuw i8, ptr %3, i64 20
  store float %15, ptr %22, align 4, !tbaa !472
  %23 = getelementptr inbounds nuw i8, ptr %3, i64 24
  store float %13, ptr %23, align 8, !tbaa !473
  %24 = getelementptr inbounds nuw i8, ptr %3, i64 28
  store i32 0, ptr %24, align 4
  %25 = fadd float %15, %17
  %26 = fsub float %.sroa.017.0.copyload, %25
  %.sroa.01.0.vec.insert = insertelement <2 x float> poison, float %26, i64 0
  %27 = fsub float %.sroa.6.0.copyload, %25
  %.sroa.01.4.vec.insert = insertelement <2 x float> %.sroa.01.0.vec.insert, float %27, i64 1
  %28 = fadd float %25, %.sroa.017.0.copyload
  %.sroa.5.8.vec.insert = insertelement <2 x float> poison, float %28, i64 0
  %29 = fadd float %.sroa.6.0.copyload, %25
  %.sroa.5.12.vec.insert = insertelement <2 x float> %.sroa.5.8.vec.insert, float %29, i64 1
  %30 = getelementptr i8, ptr %6, i64 -1608
  %31 = call i64 @b2DynamicTree_Query(ptr noundef nonnull %30, <2 x float> %.sroa.01.4.vec.insert, <2 x float> %.sroa.5.12.vec.insert, i64 noundef %19, ptr noundef nonnull @ExplosionCallback, ptr noundef nonnull %3) #22
  call void @llvm.lifetime.end.p0(i64 32, ptr nonnull %3) #22
  br label %32

32:                                               ; preds = %2, %10
  ret void
}